; Function Attrs: mustprogress nounwind uwtable
define dso_local void @_ZNK4llvm16X86FrameLowering20determineCalleeSavesERNS_15MachineFunctionERNS_9BitVectorEPNS_12RegScavengerE(ptr noundef nonnull align 8 dereferenceable(60) %0, ptr noundef nonnull align 8 dereferenceable(1041) %1, ptr noundef nonnull align 8 dereferenceable(68) %2, ptr noundef %3) unnamed_addr #2 align 2 {
  tail call void @_ZNK4llvm19TargetFrameLowering20determineCalleeSavesERNS_15MachineFunctionERNS_9BitVectorEPNS_12RegScavengerE(ptr noundef nonnull align 8 dereferenceable(21) %0, ptr noundef nonnull align 8 dereferenceable(1041) %1, ptr noundef nonnull align 8 dereferenceable(68) %2, ptr noundef %3) #23
  %5 = getelementptr inbounds nuw i8, ptr %0, i64 40
  %6 = load ptr, ptr %5, align 8
  %7 = tail call noundef zeroext i1 @_ZNK4llvm15X86RegisterInfo14hasBasePointerERKNS_15MachineFunctionE(ptr noundef nonnull align 8 dereferenceable(328) %6, ptr noundef nonnull align 8 dereferenceable(1041) %1) #23
  br i1 %7, label %8, label %33

8:                                                ; preds = %4
  %9 = load ptr, ptr %5, align 8
  %10 = getelementptr inbounds nuw i8, ptr %9, i64 324
  %11 = load i32, ptr %10, align 4
  %12 = getelementptr inbounds nuw i8, ptr %0, i64 24
  %13 = load ptr, ptr %12, align 8
  %14 = getelementptr inbounds nuw i8, ptr %13, i64 455
  %15 = load i8, ptr %14, align 1
  %16 = trunc i8 %15 to i1
  br i1 %16, label %17, label %_ZNK4llvm12X86Subtarget18isTarget64BitILP32Ev.exit.thread9

17:                                               ; preds = %8
  %18 = getelementptr inbounds i8, ptr %13, i64 544
  %19 = load i32, ptr %18, align 8
  switch i32 %19, label %_ZNK4llvm12X86Subtarget18isTarget64BitILP32Ev.exit [
    i32 18, label %_ZNK4llvm12X86Subtarget18isTarget64BitILP32Ev.exit.thread
    i32 9, label %_ZNK4llvm12X86Subtarget18isTarget64BitILP32Ev.exit.thread
  ]

_ZNK4llvm12X86Subtarget18isTarget64BitILP32Ev.exit: ; preds = %17
  %20 = getelementptr inbounds i8, ptr %13, i64 540
  %21 = load i32, ptr %20, align 4
  %22 = icmp eq i32 %21, 18
  br i1 %22, label %_ZNK4llvm12X86Subtarget18isTarget64BitILP32Ev.exit.thread, label %_ZNK4llvm12X86Subtarget18isTarget64BitILP32Ev.exit.thread9

_ZNK4llvm12X86Subtarget18isTarget64BitILP32Ev.exit.thread: ; preds = %17, %17, %_ZNK4llvm12X86Subtarget18isTarget64BitILP32Ev.exit
  %23 = tail call i32 @_ZN4llvm22getX86SubSuperRegisterENS_10MCRegisterEjb(i32 %11, i32 noundef 64, i1 noundef zeroext false) #23
  br label %_ZNK4llvm12X86Subtarget18isTarget64BitILP32Ev.exit.thread9

_ZNK4llvm12X86Subtarget18isTarget64BitILP32Ev.exit.thread9: ; preds = %8, %_ZNK4llvm12X86Subtarget18isTarget64BitILP32Ev.exit.thread, %_ZNK4llvm12X86Subtarget18isTarget64BitILP32Ev.exit
  %.sroa.07.0 = phi i32 [ %23, %_ZNK4llvm12X86Subtarget18isTarget64BitILP32Ev.exit.thread ], [ %11, %_ZNK4llvm12X86Subtarget18isTarget64BitILP32Ev.exit ], [ %11, %8 ]
  %24 = and i32 %.sroa.07.0, 63
  %25 = zext nneg i32 %24 to i64
  %26 = shl nuw i64 1, %25
  %27 = lshr i32 %.sroa.07.0, 6
  %28 = zext nneg i32 %27 to i64
  %29 = load ptr, ptr %2, align 8
  %30 = getelementptr inbounds i64, ptr %29, i64 %28
  %31 = load i64, ptr %30, align 8
  %32 = or i64 %26, %31
  store i64 %32, ptr %30, align 8
  br label %33

33:                                               ; preds = %_ZNK4llvm12X86Subtarget18isTarget64BitILP32Ev.exit.thread9, %4
  ret void
}